; Function Attrs: nounwind uwtable
define hidden void @_glfwSetWindowOpacityX11(ptr noundef readonly captures(none) %0, float noundef %1) local_unnamed_addr #0 {
  %3 = alloca i32, align 4
  call void @llvm.lifetime.start.p0(i64 4, ptr nonnull %3) #17
  %4 = fpext float %1 to double
  %5 = fmul double %4, 0x41EFFFFFFFE00000
  %6 = fptoui double %5 to i32
  store i32 %6, ptr %3, align 4, !tbaa !183
  %7 = load ptr, ptr getelementptr inbounds nuw (i8, ptr @_glfw, i64 141368), align 8, !tbaa !125
  %8 = load ptr, ptr getelementptr inbounds nuw (i8, ptr @_glfw, i64 137840), align 8, !tbaa !93
  %9 = getelementptr inbounds nuw i8, ptr %0, i64 1248
  %10 = load i64, ptr %9, align 8, !tbaa !140
  %11 = load i64, ptr getelementptr inbounds nuw (i8, ptr @_glfw, i64 141088), align 8, !tbaa !360
  %12 = call i32 %7(ptr noundef %8, i64 noundef %10, i64 noundef %11, i64 noundef 6, i32 noundef 32, i32 noundef 0, ptr noundef nonnull %3, i32 noundef 1) #17
  call void @llvm.lifetime.end.p0(i64 4, ptr nonnull %3) #17
  ret void
}